target datalayout = "e-m:e-p270:32:32-p271:32:32-p272:64:64-i64:64-i128:128-f80:128-n8:16:32:64-S128"
target triple = "x86_64-pc-linux-gnu"

%struct._bluetooth_data_t = type { i32, i32, ptr, ptr, ptr, ptr, ptr, ptr, ptr, ptr, ptr, ptr, ptr, i32, %union.anon }
%union.anon = type { ptr }

@hf_bthci_evt_bd_addr = internal global i32 0, align 4
@hf_bthci_evt_link_type = internal global i32 0, align 4
@btcommon_cod_handle = internal global ptr null, align 8

; Function Attrs: null_pointer_is_valid sspstrong uwtable
define internal i32 @dissect_bthci_evt_connect_request(ptr noundef %0, i32 noundef %1, ptr noundef %2, ptr noundef %3, ptr noundef %4) #1 {
  %6 = alloca ptr, align 8
  %7 = alloca i32, align 4
  %8 = alloca ptr, align 8
  %9 = alloca ptr, align 8
  %10 = alloca ptr, align 8
  store ptr %0, ptr %6, align 8
  store i32 %1, ptr %7, align 4
  store ptr %2, ptr %8, align 8
  store ptr %3, ptr %9, align 8
  store ptr %4, ptr %10, align 8
  %11 = load i32, ptr @hf_bthci_evt_bd_addr, align 4
  %12 = load ptr, ptr %8, align 8
  %13 = load ptr, ptr %9, align 8
  %14 = load ptr, ptr %6, align 8
  %15 = load i32, ptr %7, align 4
  %16 = load ptr, ptr %10, align 8
  %17 = getelementptr inbounds nuw %struct._bluetooth_data_t, ptr %16, i32 0, i32 0
  %18 = load i32, ptr %17, align 8
  %19 = load ptr, ptr %10, align 8
  %20 = getelementptr inbounds nuw %struct._bluetooth_data_t, ptr %19, i32 0, i32 1
  %21 = load i32, ptr %20, align 4
  %22 = call i32 @dissect_bd_addr(i32 noundef %11, ptr noundef %12, ptr noundef %13, ptr noundef %14, i32 noundef %15, i1 noundef zeroext false, i32 noundef %18, i32 noundef %21, ptr noundef null)
  store i32 %22, ptr %7, align 4
  %23 = load ptr, ptr @btcommon_cod_handle, align 8
  %24 = load ptr, ptr %6, align 8
  %25 = load i32, ptr %7, align 4
  %26 = call ptr @tvb_new_subset_length(ptr noundef %24, i32 noundef %25, i32 noundef 3)
  %27 = load ptr, ptr %8, align 8
  %28 = load ptr, ptr %9, align 8
  %29 = call i32 @call_dissector(ptr noundef %23, ptr noundef %26, ptr noundef %27, ptr noundef %28)
  %30 = load i32, ptr %7, align 4
  %31 = add i32 %30, 3
  store i32 %31, ptr %7, align 4
  %32 = load ptr, ptr %9, align 8
  %33 = load i32, ptr @hf_bthci_evt_link_type, align 4
  %34 = load ptr, ptr %6, align 8
  %35 = load i32, ptr %7, align 4
  %36 = call ptr @proto_tree_add_item(ptr noundef %32, i32 noundef %33, ptr noundef %34, i32 noundef %35, i32 noundef 1, i32 noundef -2147483648)
  %37 = load i32, ptr %7, align 4
  %38 = add i32 %37, 1
  store i32 %38, ptr %7, align 4
  %39 = load i32, ptr %7, align 4
  ret i32 %39
}