; Function Attrs: null_pointer_is_valid sspstrong uwtable
define internal fastcc noundef i32 @dissect_bthci_evt_connect_request(ptr noundef %0, ptr noundef %1, ptr noundef %2, i32 %.0.val, i32 %.4.val) unnamed_addr #1 {
  %4 = load i32, ptr @hf_bthci_evt_bd_addr, align 4
  %5 = tail call i32 @dissect_bd_addr(i32 noundef %4, ptr noundef %1, ptr noundef %2, ptr noundef %0, i32 noundef 2, i1 noundef zeroext false, i32 noundef %.0.val, i32 noundef %.4.val, ptr noundef null)
  %6 = load ptr, ptr @btcommon_cod_handle, align 8
  %7 = tail call ptr @tvb_new_subset_length(ptr noundef %0, i32 noundef %5, i32 noundef 3)
  %8 = tail call i32 @call_dissector(ptr noundef %6, ptr noundef %7, ptr noundef %1, ptr noundef %2)
  %9 = add i32 %5, 3
  %10 = load i32, ptr @hf_bthci_evt_link_type, align 4
  %11 = tail call ptr @proto_tree_add_item(ptr noundef %2, i32 noundef %10, ptr noundef %0, i32 noundef %9, i32 noundef 1, i32 noundef -2147483648)
  %12 = add i32 %5, 4
  ret i32 %12
}